target datalayout = "e-m:e-p270:32:32-p271:32:32-p272:64:64-i64:64-i128:128-f80:128-n8:16:32:64-S128"
target triple = "x86_64-pc-linux-gnu"

%struct.fetch_config = type { i32, i32, i32, i32, i32, i32, i32, i32 }
%struct.strvec = type { ptr, i64, i64 }
%struct.string_list = type { ptr, i64, i64, i8, ptr }
%struct.string_list_item = type { ptr, ptr }
%struct.parallel_fetch_state = type { ptr, ptr, i32, i32, ptr }
%struct.child_process = type { %struct.strvec, %struct.strvec, i32, i32, i64, ptr, ptr, i32, i32, i32, ptr, i16, ptr }

@.str = private unnamed_addr constant [1 x i8] zeroinitializer, align 1
@verbosity = internal global i32 0, align 4
@git_gettext_enabled = external global i32, align 4
@.str.264 = private unnamed_addr constant [13 x i8] c"Fetching %s\0A\00", align 1

; Function Attrs: inlinehint nounwind uwtable
define internal ptr @_(ptr noundef %0) #5 {
  %2 = alloca ptr, align 8
  %3 = alloca ptr, align 8
  store ptr %0, ptr %3, align 8, !tbaa !11
  %4 = load ptr, ptr %3, align 8, !tbaa !11
  %5 = load i8, ptr %4, align 1, !tbaa !119
  %6 = icmp ne i8 %5, 0
  br i1 %6, label %8, label %7

7:                                                ; preds = %1
  store ptr @.str, ptr %2, align 8
  br label %16

8:                                                ; preds = %1
  %9 = load i32, ptr @git_gettext_enabled, align 4, !tbaa !4
  %10 = icmp ne i32 %9, 0
  br i1 %10, label %13, label %11

11:                                               ; preds = %8
  %12 = load ptr, ptr %3, align 8, !tbaa !11
  store ptr %12, ptr %2, align 8
  br label %16

13:                                               ; preds = %8
  %14 = load ptr, ptr %3, align 8, !tbaa !11
  %15 = call ptr @dcgettext(ptr noundef null, ptr noundef %14, i32 noundef 5) #11
  store ptr %15, ptr %2, align 8
  br label %16

16:                                               ; preds = %13, %11, %7
  %17 = load ptr, ptr %2, align 8
  ret ptr %17
}

; Function Attrs: nounwind uwtable
define internal i32 @fetch_next_remote(ptr noundef %0, ptr noundef %1, ptr noundef %2, ptr noundef %3) #0 {
  %5 = alloca i32, align 4
  %6 = alloca ptr, align 8
  %7 = alloca ptr, align 8
  %8 = alloca ptr, align 8
  %9 = alloca ptr, align 8
  %10 = alloca ptr, align 8
  %11 = alloca ptr, align 8
  %12 = alloca i32, align 4
  store ptr %0, ptr %6, align 8, !tbaa !280
  store ptr %1, ptr %7, align 8, !tbaa !106
  store ptr %2, ptr %8, align 8, !tbaa !108
  store ptr %3, ptr %9, align 8, !tbaa !108
  call void @llvm.lifetime.start.p0(i64 8, ptr %10) #11
  %13 = load ptr, ptr %8, align 8, !tbaa !108
  store ptr %13, ptr %10, align 8, !tbaa !282
  call void @llvm.lifetime.start.p0(i64 8, ptr %11) #11
  %14 = load ptr, ptr %10, align 8, !tbaa !282
  %15 = getelementptr inbounds nuw %struct.parallel_fetch_state, ptr %14, i32 0, i32 2
  %16 = load i32, ptr %15, align 8, !tbaa !157
  %17 = icmp slt i32 %16, 0
  br i1 %17, label %29, label %18

18:                                               ; preds = %4
  %19 = load ptr, ptr %10, align 8, !tbaa !282
  %20 = getelementptr inbounds nuw %struct.parallel_fetch_state, ptr %19, i32 0, i32 2
  %21 = load i32, ptr %20, align 8, !tbaa !157
  %22 = sext i32 %21 to i64
  %23 = load ptr, ptr %10, align 8, !tbaa !282
  %24 = getelementptr inbounds nuw %struct.parallel_fetch_state, ptr %23, i32 0, i32 1
  %25 = load ptr, ptr %24, align 8, !tbaa !156
  %26 = getelementptr inbounds nuw %struct.string_list, ptr %25, i32 0, i32 1
  %27 = load i64, ptr %26, align 8, !tbaa !58
  %28 = icmp uge i64 %22, %27
  br i1 %28, label %29, label %30

29:                                               ; preds = %18, %4
  store i32 0, ptr %5, align 4
  store i32 1, ptr %12, align 4
  br label %74

30:                                               ; preds = %18
  %31 = load ptr, ptr %10, align 8, !tbaa !282
  %32 = getelementptr inbounds nuw %struct.parallel_fetch_state, ptr %31, i32 0, i32 1
  %33 = load ptr, ptr %32, align 8, !tbaa !156
  %34 = getelementptr inbounds nuw %struct.string_list, ptr %33, i32 0, i32 0
  %35 = load ptr, ptr %34, align 8, !tbaa !62
  %36 = load ptr, ptr %10, align 8, !tbaa !282
  %37 = getelementptr inbounds nuw %struct.parallel_fetch_state, ptr %36, i32 0, i32 2
  %38 = load i32, ptr %37, align 8, !tbaa !157
  %39 = add nsw i32 %38, 1
  store i32 %39, ptr %37, align 8, !tbaa !157
  %40 = sext i32 %38 to i64
  %41 = getelementptr inbounds %struct.string_list_item, ptr %35, i64 %40
  %42 = getelementptr inbounds nuw %struct.string_list_item, ptr %41, i32 0, i32 0
  %43 = load ptr, ptr %42, align 8, !tbaa !63
  store ptr %43, ptr %11, align 8, !tbaa !11
  %44 = load ptr, ptr %11, align 8, !tbaa !11
  %45 = load ptr, ptr %9, align 8, !tbaa !108
  store ptr %44, ptr %45, align 8, !tbaa !108
  %46 = load ptr, ptr %6, align 8, !tbaa !280
  %47 = getelementptr inbounds nuw %struct.child_process, ptr %46, i32 0, i32 0
  %48 = load ptr, ptr %10, align 8, !tbaa !282
  %49 = getelementptr inbounds nuw %struct.parallel_fetch_state, ptr %48, i32 0, i32 0
  %50 = load ptr, ptr %49, align 8, !tbaa !154
  call void @strvec_pushv(ptr noundef %47, ptr noundef %50)
  %51 = load ptr, ptr %6, align 8, !tbaa !280
  %52 = getelementptr inbounds nuw %struct.child_process, ptr %51, i32 0, i32 0
  %53 = load ptr, ptr %11, align 8, !tbaa !11
  %54 = call ptr @strvec_push(ptr noundef %52, ptr noundef %53)
  %55 = load ptr, ptr %6, align 8, !tbaa !280
  %56 = getelementptr inbounds nuw %struct.child_process, ptr %55, i32 0, i32 11
  %57 = load i16, ptr %56, align 8
  %58 = and i16 %57, -9
  %59 = or i16 %58, 8
  store i16 %59, ptr %56, align 8
  %60 = load i32, ptr @verbosity, align 4, !tbaa !4
  %61 = icmp sge i32 %60, 0
  br i1 %61, label %62, label %73

62:                                               ; preds = %30
  %63 = load ptr, ptr %10, align 8, !tbaa !282
  %64 = getelementptr inbounds nuw %struct.parallel_fetch_state, ptr %63, i32 0, i32 4
  %65 = load ptr, ptr %64, align 8, !tbaa !159
  %66 = getelementptr inbounds nuw %struct.fetch_config, ptr %65, i32 0, i32 0
  %67 = load i32, ptr %66, align 4, !tbaa !57
  %68 = icmp ne i32 %67, 2
  br i1 %68, label %69, label %73

69:                                               ; preds = %62
  %70 = call ptr @_(ptr noundef @.str.264)
  %71 = load ptr, ptr %11, align 8, !tbaa !11
  %72 = call i32 (ptr, ...) @printf(ptr noundef %70, ptr noundef %71)
  br label %73

73:                                               ; preds = %69, %62, %30
  store i32 1, ptr %5, align 4
  store i32 1, ptr %12, align 4
  br label %74

74:                                               ; preds = %73, %29
  call void @llvm.lifetime.end.p0(i64 8, ptr %11) #11
  call void @llvm.lifetime.end.p0(i64 8, ptr %10) #11
  %75 = load i32, ptr %5, align 4
  ret i32 %75
}