; Function Attrs: nounwind uwtable
define internal range(i32 0, 2) i32 @fetch_next_remote(ptr noundef %0, ptr readnone captures(none) %1, ptr noundef captures(none) %2, ptr noundef writeonly captures(none) %3) #0 {
  %5 = getelementptr inbounds nuw i8, ptr %2, i64 16
  %6 = load i32, ptr %5, align 8, !tbaa !167
  %7 = icmp slt i32 %6, 0
  br i1 %7, label %35, label %8

8:                                                ; preds = %4
  %9 = zext nneg i32 %6 to i64
  %10 = getelementptr inbounds nuw i8, ptr %2, i64 8
  %11 = load ptr, ptr %10, align 8, !tbaa !166
  %12 = getelementptr inbounds nuw i8, ptr %11, i64 8
  %13 = load i64, ptr %12, align 8, !tbaa !49
  %.not = icmp ugt i64 %13, %9
  br i1 %.not, label %14, label %35

14:                                               ; preds = %8
  %15 = load ptr, ptr %11, align 8, !tbaa !52
  %16 = add nuw nsw i32 %6, 1
  store i32 %16, ptr %5, align 8, !tbaa !167
  %17 = getelementptr inbounds nuw %struct.string_list_item, ptr %15, i64 %9
  %18 = load ptr, ptr %17, align 8, !tbaa !53
  store ptr %18, ptr %3, align 8, !tbaa !227
  %19 = load ptr, ptr %2, align 8, !tbaa !163
  tail call void @strvec_pushv(ptr noundef %0, ptr noundef %19) #20
  %20 = tail call ptr @strvec_push(ptr noundef %0, ptr noundef %18) #20
  %21 = getelementptr inbounds nuw i8, ptr %0, i64 104
  %22 = load i16, ptr %21, align 8
  %23 = or i16 %22, 8
  store i16 %23, ptr %21, align 8
  %24 = load i32, ptr @verbosity, align 4, !tbaa !9
  %25 = icmp sgt i32 %24, -1
  br i1 %25, label %26, label %35

26:                                               ; preds = %14
  %27 = getelementptr inbounds nuw i8, ptr %2, i64 24
  %28 = load ptr, ptr %27, align 8, !tbaa !169
  %29 = load i32, ptr %28, align 4, !tbaa !48
  %.not17 = icmp eq i32 %29, 2
  br i1 %.not17, label %35, label %30

30:                                               ; preds = %26
  %31 = load i32, ptr @git_gettext_enabled, align 4, !tbaa !9
  %.not4.i = icmp eq i32 %31, 0
  br i1 %.not4.i, label %_.exit, label %32

32:                                               ; preds = %30
  %33 = tail call ptr @dcgettext(ptr noundef null, ptr noundef nonnull @.str.264, i32 noundef 5) #20
  br label %_.exit

_.exit:                                           ; preds = %30, %32
  %.0.i = phi ptr [ %33, %32 ], [ @.str.264, %30 ]
  %34 = tail call i32 (ptr, ...) @printf(ptr noundef nonnull dereferenceable(1) %.0.i, ptr noundef %18)
  br label %35

35:                                               ; preds = %14, %26, %_.exit, %4, %8
  %.0 = phi i32 [ 0, %8 ], [ 0, %4 ], [ 1, %_.exit ], [ 1, %26 ], [ 1, %14 ]
  ret i32 %.0
}